target datalayout = "e-m:e-p270:32:32-p271:32:32-p272:64:64-i64:64-i128:128-f80:128-n8:16:32:64-S128"
target triple = "x86_64-pc-linux-gnu"

%"struct.Luau::CodeGen::X64::OperandX64" = type { i8, %"struct.Luau::CodeGen::X64::RegisterX64", %"struct.Luau::CodeGen::X64::RegisterX64", i8, i32 }
%"struct.Luau::CodeGen::X64::RegisterX64" = type { i8 }
%"class.Luau::CodeGen::X64::IrCallWrapperX64" = type { ptr, ptr, i32, %"struct.std::array", i32, i32, i32, %"struct.Luau::CodeGen::X64::OperandX64", %"struct.std::array.16", %"struct.std::array.16" }
%"struct.std::array" = type { [6 x %"struct.Luau::CodeGen::X64::CallArgument"] }
%"struct.Luau::CodeGen::X64::CallArgument" = type <{ i8, [3 x i8], %"struct.Luau::CodeGen::X64::OperandX64", %"struct.Luau::CodeGen::IrOp", %"struct.Luau::CodeGen::X64::OperandX64", i8, [3 x i8] }>
%"struct.Luau::CodeGen::IrOp" = type { i32 }
%"struct.std::array.16" = type { [16 x i8] }

@_ZN4Luau7CodeGen3X64L5qwordE = internal constant %"struct.Luau::CodeGen::X64::OperandX64" { i8 1, %"struct.Luau::CodeGen::X64::RegisterX64" { i8 -128 }, %"struct.Luau::CodeGen::X64::RegisterX64" { i8 -128 }, i8 20, i32 0 }, align 4
@_ZN4Luau7CodeGen3X64L5sCodeE = internal constant %"struct.Luau::CodeGen::X64::OperandX64" { i8 1, %"struct.Luau::CodeGen::X64::RegisterX64" { i8 -128 }, %"struct.Luau::CodeGen::X64::RegisterX64" { i8 36 }, i8 20, i32 56 }, align 4
@_ZN4Luau7CodeGen3X64L6rStateE = internal constant %"struct.Luau::CodeGen::X64::RegisterX64" { i8 124 }, align 1
@_ZN4Luau7CodeGen3X64L14rNativeContextE = internal constant %"struct.Luau::CodeGen::X64::RegisterX64" { i8 108 }, align 1
@_ZN4Luau7CodeGen3X64L4addrE = internal constant %"struct.Luau::CodeGen::X64::OperandX64" { i8 1, %"struct.Luau::CodeGen::X64::RegisterX64" { i8 -128 }, %"struct.Luau::CodeGen::X64::RegisterX64" { i8 -128 }, i8 16, i32 0 }, align 4
@_ZN4Luau7CodeGen3X64L5rBaseE = internal constant %"struct.Luau::CodeGen::X64::RegisterX64" { i8 116 }, align 1
@_ZN4Luau7CodeGen3X64L10rConstantsE = internal constant %"struct.Luau::CodeGen::X64::RegisterX64" { i8 100 }, align 1
@_ZN4Luau7CodeGen3X64L5noregE = internal constant %"struct.Luau::CodeGen::X64::RegisterX64" { i8 -128 }, align 1

; Function Attrs: mustprogress nounwind uwtable
define linkonce_odr dso_local void @_ZN4Luau7CodeGen3X6410OperandX64C2ENS1_7SizeX64ENS1_11RegisterX64EhS4_i(ptr noundef nonnull align 4 dereferenceable(8) %0, i8 noundef zeroext %1, i8 %2, i8 noundef zeroext %3, i8 %4, i32 noundef %5) unnamed_addr #4 comdat align 2 {
  %7 = alloca %"struct.Luau::CodeGen::X64::RegisterX64", align 1
  %8 = alloca %"struct.Luau::CodeGen::X64::RegisterX64", align 1
  %9 = alloca ptr, align 8
  %10 = alloca i8, align 1
  %11 = alloca i8, align 1
  %12 = alloca i32, align 4
  %13 = getelementptr inbounds nuw %"struct.Luau::CodeGen::X64::RegisterX64", ptr %7, i32 0, i32 0
  store i8 %2, ptr %13, align 1
  %14 = getelementptr inbounds nuw %"struct.Luau::CodeGen::X64::RegisterX64", ptr %8, i32 0, i32 0
  store i8 %4, ptr %14, align 1
  store ptr %0, ptr %9, align 8, !tbaa !24
  store i8 %1, ptr %10, align 1, !tbaa !73
  store i8 %3, ptr %11, align 1, !tbaa !21
  store i32 %5, ptr %12, align 4, !tbaa !22
  %15 = load ptr, ptr %9, align 8
  %16 = getelementptr inbounds nuw %"struct.Luau::CodeGen::X64::OperandX64", ptr %15, i32 0, i32 0
  store i8 1, ptr %16, align 4, !tbaa !13
  %17 = getelementptr inbounds nuw %"struct.Luau::CodeGen::X64::OperandX64", ptr %15, i32 0, i32 1
  call void @llvm.memcpy.p0.p0.i64(ptr align 1 %17, ptr align 1 %7, i64 1, i1 false), !tbaa.struct !23
  %18 = getelementptr inbounds nuw %"struct.Luau::CodeGen::X64::OperandX64", ptr %15, i32 0, i32 2
  call void @llvm.memcpy.p0.p0.i64(ptr align 2 %18, ptr align 1 %8, i64 1, i1 false), !tbaa.struct !23
  %19 = getelementptr inbounds nuw %"struct.Luau::CodeGen::X64::OperandX64", ptr %15, i32 0, i32 3
  %20 = load i8, ptr %10, align 1, !tbaa !73
  %21 = load i8, ptr %19, align 1
  %22 = and i8 %20, 15
  %23 = and i8 %21, -16
  %24 = or i8 %23, %22
  store i8 %24, ptr %19, align 1
  %25 = getelementptr inbounds nuw %"struct.Luau::CodeGen::X64::OperandX64", ptr %15, i32 0, i32 3
  %26 = load i8, ptr %11, align 1, !tbaa !21
  %27 = load i8, ptr %25, align 1
  %28 = and i8 %26, 15
  %29 = shl i8 %28, 4
  %30 = and i8 %27, 15
  %31 = or i8 %30, %29
  store i8 %31, ptr %25, align 1
  %32 = getelementptr inbounds nuw %"struct.Luau::CodeGen::X64::OperandX64", ptr %15, i32 0, i32 4
  %33 = load i32, ptr %12, align 4, !tbaa !22
  store i32 %33, ptr %32, align 4, !tbaa !26
  ret void
}

; Function Attrs: mustprogress uwtable
define dso_local void @_ZN4Luau7CodeGen3X6414emitUpdateBaseERNS1_18AssemblyBuilderX64E(ptr noundef nonnull align 8 dereferenceable(252) %0) #0 {
  %2 = alloca ptr, align 8
  %3 = alloca %"struct.Luau::CodeGen::X64::OperandX64", align 4
  %4 = alloca %"struct.Luau::CodeGen::X64::RegisterX64", align 1
  %5 = alloca %"struct.Luau::CodeGen::X64::OperandX64", align 4
  %6 = alloca %"struct.Luau::CodeGen::X64::OperandX64", align 4
  %7 = alloca %"struct.Luau::CodeGen::X64::RegisterX64", align 1
  store ptr %0, ptr %2, align 8, !tbaa !4
  %8 = load ptr, ptr %2, align 8, !tbaa !4
  call void @llvm.memcpy.p0.p0.i64(ptr align 1 %4, ptr align 1 @_ZN4Luau7CodeGen3X64L5rBaseE, i64 1, i1 false), !tbaa.struct !23
  %9 = getelementptr inbounds nuw %"struct.Luau::CodeGen::X64::RegisterX64", ptr %4, i32 0, i32 0
  %10 = load i8, ptr %9, align 1
  call void @_ZN4Luau7CodeGen3X6410OperandX64C2ENS1_11RegisterX64E(ptr noundef nonnull align 4 dereferenceable(8) %3, i8 %10)
  call void @llvm.lifetime.start.p0(i64 8, ptr %6) #8
  call void @llvm.memcpy.p0.p0.i64(ptr align 1 %7, ptr align 1 @_ZN4Luau7CodeGen3X64L6rStateE, i64 1, i1 false), !tbaa.struct !23
  %11 = getelementptr inbounds nuw %"struct.Luau::CodeGen::X64::RegisterX64", ptr %7, i32 0, i32 0
  %12 = load i8, ptr %11, align 1
  %13 = call i64 @_ZN4Luau7CodeGen3X64plENS1_11RegisterX64Ei(i8 %12, i32 noundef 16)
  store i64 %13, ptr %6, align 4
  %14 = call i64 @_ZNK4Luau7CodeGen3X6410OperandX64ixEOS2_(ptr noundef nonnull align 4 dereferenceable(8) @_ZN4Luau7CodeGen3X64L5qwordE, ptr noundef nonnull align 4 dereferenceable(8) %6)
  store i64 %14, ptr %5, align 4
  %15 = load i64, ptr %3, align 4
  %16 = load i64, ptr %5, align 4
  call void @_ZN4Luau7CodeGen3X6418AssemblyBuilderX643movENS1_10OperandX64ES3_(ptr noundef nonnull align 8 dereferenceable(252) %8, i64 %15, i64 %16)
  call void @llvm.lifetime.end.p0(i64 8, ptr %6) #8
  ret void
}

; Function Attrs: mustprogress nounwind uwtable
define linkonce_odr dso_local i64 @_ZNK4Luau7CodeGen3X6410OperandX64ixEOS2_(ptr noundef nonnull align 4 dereferenceable(8) %0, ptr noundef nonnull align 4 dereferenceable(8) %1) #4 comdat align 2 {
  %3 = alloca %"struct.Luau::CodeGen::X64::OperandX64", align 4
  %4 = alloca ptr, align 8
  %5 = alloca ptr, align 8
  store ptr %0, ptr %4, align 8, !tbaa !24
  store ptr %1, ptr %5, align 8, !tbaa !24
  %6 = load ptr, ptr %4, align 8
  %7 = load ptr, ptr %5, align 8, !tbaa !24
  %8 = getelementptr inbounds nuw %"struct.Luau::CodeGen::X64::OperandX64", ptr %7, i32 0, i32 0
  store i8 1, ptr %8, align 4, !tbaa !13
  %9 = getelementptr inbounds nuw %"struct.Luau::CodeGen::X64::OperandX64", ptr %6, i32 0, i32 3
  %10 = load i8, ptr %9, align 1
  %11 = and i8 %10, 15
  %12 = load ptr, ptr %5, align 8, !tbaa !24
  %13 = getelementptr inbounds nuw %"struct.Luau::CodeGen::X64::OperandX64", ptr %12, i32 0, i32 3
  %14 = load i8, ptr %13, align 1
  %15 = and i8 %11, 15
  %16 = and i8 %14, -16
  %17 = or i8 %16, %15
  store i8 %17, ptr %13, align 1
  %18 = load ptr, ptr %5, align 8, !tbaa !24
  call void @llvm.memcpy.p0.p0.i64(ptr align 4 %3, ptr align 4 %18, i64 8, i1 false), !tbaa.struct !19
  %19 = load i64, ptr %3, align 4
  ret i64 %19
}

; Function Attrs: mustprogress uwtable
define linkonce_odr dso_local i64 @_ZN4Luau7CodeGen3X64plENS1_11RegisterX64Ei(i8 %0, i32 noundef %1) #0 comdat {
  %3 = alloca %"struct.Luau::CodeGen::X64::OperandX64", align 4
  %4 = alloca %"struct.Luau::CodeGen::X64::RegisterX64", align 1
  %5 = alloca i32, align 4
  %6 = alloca %"struct.Luau::CodeGen::X64::RegisterX64", align 1
  %7 = alloca %"struct.Luau::CodeGen::X64::RegisterX64", align 1
  %8 = getelementptr inbounds nuw %"struct.Luau::CodeGen::X64::RegisterX64", ptr %4, i32 0, i32 0
  store i8 %0, ptr %8, align 1
  store i32 %1, ptr %5, align 4, !tbaa !22
  call void @llvm.memcpy.p0.p0.i64(ptr align 1 %6, ptr align 1 @_ZN4Luau7CodeGen3X64L5noregE, i64 1, i1 false), !tbaa.struct !23
  call void @llvm.memcpy.p0.p0.i64(ptr align 1 %7, ptr align 1 %4, i64 1, i1 false), !tbaa.struct !23
  %9 = load i32, ptr %5, align 4, !tbaa !22
  %10 = getelementptr inbounds nuw %"struct.Luau::CodeGen::X64::RegisterX64", ptr %6, i32 0, i32 0
  %11 = load i8, ptr %10, align 1
  %12 = getelementptr inbounds nuw %"struct.Luau::CodeGen::X64::RegisterX64", ptr %7, i32 0, i32 0
  %13 = load i8, ptr %12, align 1
  call void @_ZN4Luau7CodeGen3X6410OperandX64C2ENS1_7SizeX64ENS1_11RegisterX64EhS4_i(ptr noundef nonnull align 4 dereferenceable(8) %3, i8 noundef zeroext 0, i8 %11, i8 noundef zeroext 1, i8 %13, i32 noundef %9)
  %14 = load i64, ptr %3, align 4
  ret i64 %14
}

; Function Attrs: mustprogress nounwind uwtable
define linkonce_odr dso_local void @_ZN4Luau7CodeGen4IrOpC2Ev(ptr noundef nonnull align 4 dereferenceable(4) %0) unnamed_addr #4 comdat align 2 {
  %2 = alloca ptr, align 8
  store ptr %0, ptr %2, align 8, !tbaa !31
  %3 = load ptr, ptr %2, align 8
  %4 = load i32, ptr %3, align 4
  %5 = and i32 %4, -16
  %6 = or i32 %5, 0
  store i32 %6, ptr %3, align 4
  %7 = load i32, ptr %3, align 4
  %8 = and i32 %7, 15
  %9 = or i32 %8, 0
  store i32 %9, ptr %3, align 4
  ret void
}

; Function Attrs: mustprogress nounwind uwtable
define linkonce_odr dso_local void @_ZN4Luau7CodeGen3X6410OperandX64C2ENS1_11RegisterX64E(ptr noundef nonnull align 4 dereferenceable(8) %0, i8 %1) unnamed_addr #4 comdat align 2 {
  %3 = alloca %"struct.Luau::CodeGen::X64::RegisterX64", align 1
  %4 = alloca ptr, align 8
  %5 = getelementptr inbounds nuw %"struct.Luau::CodeGen::X64::RegisterX64", ptr %3, i32 0, i32 0
  store i8 %1, ptr %5, align 1
  store ptr %0, ptr %4, align 8, !tbaa !24
  %6 = load ptr, ptr %4, align 8
  %7 = getelementptr inbounds nuw %"struct.Luau::CodeGen::X64::OperandX64", ptr %6, i32 0, i32 0
  store i8 0, ptr %7, align 4, !tbaa !13
  %8 = getelementptr inbounds nuw %"struct.Luau::CodeGen::X64::OperandX64", ptr %6, i32 0, i32 1
  call void @llvm.memcpy.p0.p0.i64(ptr align 1 %8, ptr align 1 @_ZN4Luau7CodeGen3X64L5noregE, i64 1, i1 false), !tbaa.struct !23
  %9 = getelementptr inbounds nuw %"struct.Luau::CodeGen::X64::OperandX64", ptr %6, i32 0, i32 2
  call void @llvm.memcpy.p0.p0.i64(ptr align 2 %9, ptr align 1 %3, i64 1, i1 false), !tbaa.struct !23
  %10 = getelementptr inbounds nuw %"struct.Luau::CodeGen::X64::OperandX64", ptr %6, i32 0, i32 3
  %11 = load i8, ptr %10, align 1
  %12 = and i8 %11, -16
  %13 = or i8 %12, 0
  store i8 %13, ptr %10, align 1
  %14 = getelementptr inbounds nuw %"struct.Luau::CodeGen::X64::OperandX64", ptr %6, i32 0, i32 3
  %15 = load i8, ptr %14, align 1
  %16 = and i8 %15, 15
  %17 = or i8 %16, 16
  store i8 %17, ptr %14, align 1
  %18 = getelementptr inbounds nuw %"struct.Luau::CodeGen::X64::OperandX64", ptr %6, i32 0, i32 4
  store i32 0, ptr %18, align 4, !tbaa !26
  ret void
}

; Function Attrs: mustprogress uwtable
define dso_local void @_ZN4Luau7CodeGen3X6412emitFallbackERNS1_13IrRegAllocX64ERNS1_18AssemblyBuilderX64Eii(ptr noundef nonnull align 8 dereferenceable(256) %0, ptr noundef nonnull align 8 dereferenceable(252) %1, i32 noundef %2, i32 noundef %3) #0 {
  %5 = alloca ptr, align 8
  %6 = alloca ptr, align 8
  %7 = alloca i32, align 4
  %8 = alloca i32, align 4
  %9 = alloca %"class.Luau::CodeGen::X64::IrCallWrapperX64", align 8
  %10 = alloca %"struct.Luau::CodeGen::X64::OperandX64", align 4
  %11 = alloca %"struct.Luau::CodeGen::X64::RegisterX64", align 1
  %12 = alloca %"struct.Luau::CodeGen::IrOp", align 4
  %13 = alloca %"struct.Luau::CodeGen::X64::RegisterX64", align 1
  %14 = alloca %"struct.Luau::CodeGen::X64::OperandX64", align 4
  %15 = alloca %"struct.Luau::CodeGen::X64::RegisterX64", align 1
  %16 = alloca %"struct.Luau::CodeGen::X64::OperandX64", align 4
  %17 = alloca %"struct.Luau::CodeGen::X64::OperandX64", align 4
  %18 = alloca %"struct.Luau::CodeGen::X64::OperandX64", align 4
  %19 = alloca %"struct.Luau::CodeGen::X64::RegisterX64", align 1
  %20 = alloca %"struct.Luau::CodeGen::IrOp", align 4
  %21 = alloca %"struct.Luau::CodeGen::X64::OperandX64", align 4
  %22 = alloca %"struct.Luau::CodeGen::X64::RegisterX64", align 1
  %23 = alloca %"struct.Luau::CodeGen::IrOp", align 4
  %24 = alloca %"struct.Luau::CodeGen::X64::OperandX64", align 4
  %25 = alloca %"struct.Luau::CodeGen::X64::RegisterX64", align 1
  %26 = alloca %"struct.Luau::CodeGen::IrOp", align 4
  %27 = alloca %"struct.Luau::CodeGen::X64::OperandX64", align 4
  %28 = alloca %"struct.Luau::CodeGen::X64::OperandX64", align 4
  %29 = alloca %"struct.Luau::CodeGen::X64::RegisterX64", align 1
  store ptr %0, ptr %5, align 8, !tbaa !27
  store ptr %1, ptr %6, align 8, !tbaa !4
  store i32 %2, ptr %7, align 4, !tbaa !22
  store i32 %3, ptr %8, align 4, !tbaa !22
  call void @llvm.lifetime.start.p0(i64 240, ptr %9) #8
  %30 = load ptr, ptr %5, align 8, !tbaa !27
  %31 = load ptr, ptr %6, align 8, !tbaa !4
  call void @_ZN4Luau7CodeGen3X6416IrCallWrapperX64C1ERNS1_13IrRegAllocX64ERNS1_18AssemblyBuilderX64Ej(ptr noundef nonnull align 8 dereferenceable(240) %9, ptr noundef nonnull align 8 dereferenceable(256) %30, ptr noundef nonnull align 8 dereferenceable(252) %31, i32 noundef -1)
  call void @llvm.memcpy.p0.p0.i64(ptr align 1 %11, ptr align 1 @_ZN4Luau7CodeGen3X64L6rStateE, i64 1, i1 false), !tbaa.struct !23
  %32 = getelementptr inbounds nuw %"struct.Luau::CodeGen::X64::RegisterX64", ptr %11, i32 0, i32 0
  %33 = load i8, ptr %32, align 1
  call void @_ZN4Luau7CodeGen3X6410OperandX64C2ENS1_11RegisterX64E(ptr noundef nonnull align 4 dereferenceable(8) %10, i8 %33)
  call void @_ZN4Luau7CodeGen4IrOpC2Ev(ptr noundef nonnull align 4 dereferenceable(4) %12)
  %34 = load i64, ptr %10, align 4
  %35 = getelementptr inbounds nuw %"struct.Luau::CodeGen::IrOp", ptr %12, i32 0, i32 0
  %36 = load i32, ptr %35, align 4
  call void @_ZN4Luau7CodeGen3X6416IrCallWrapperX6411addArgumentENS1_7SizeX64ENS1_10OperandX64ENS0_4IrOpE(ptr noundef nonnull align 8 dereferenceable(240) %9, i8 noundef zeroext 4, i64 %34, i32 %36)
  call void @llvm.lifetime.start.p0(i64 1, ptr %13) #8
  %37 = call i8 @_ZNK4Luau7CodeGen3X6416IrCallWrapperX6427suggestNextArgumentRegisterENS1_7SizeX64E(ptr noundef nonnull align 8 dereferenceable(240) %9, i8 noundef zeroext 4)
  %38 = getelementptr inbounds nuw %"struct.Luau::CodeGen::X64::RegisterX64", ptr %13, i32 0, i32 0
  store i8 %37, ptr %38, align 1
  %39 = load ptr, ptr %6, align 8, !tbaa !4
  call void @llvm.memcpy.p0.p0.i64(ptr align 1 %15, ptr align 1 %13, i64 1, i1 false), !tbaa.struct !23
  %40 = getelementptr inbounds nuw %"struct.Luau::CodeGen::X64::RegisterX64", ptr %15, i32 0, i32 0
  %41 = load i8, ptr %40, align 1
  call void @_ZN4Luau7CodeGen3X6410OperandX64C2ENS1_11RegisterX64E(ptr noundef nonnull align 4 dereferenceable(8) %14, i8 %41)
  call void @llvm.memcpy.p0.p0.i64(ptr align 4 %16, ptr align 4 @_ZN4Luau7CodeGen3X64L5sCodeE, i64 8, i1 false), !tbaa.struct !19
  %42 = load i64, ptr %14, align 4
  %43 = load i64, ptr %16, align 4
  call void @_ZN4Luau7CodeGen3X6418AssemblyBuilderX643movENS1_10OperandX64ES3_(ptr noundef nonnull align 8 dereferenceable(252) %39, i64 %42, i64 %43)
  call void @llvm.lifetime.start.p0(i64 8, ptr %18) #8
  call void @llvm.memcpy.p0.p0.i64(ptr align 1 %19, ptr align 1 %13, i64 1, i1 false), !tbaa.struct !23
  %44 = load i32, ptr %8, align 4, !tbaa !22
  %45 = sext i32 %44 to i64
  %46 = mul i64 %45, 4
  %47 = trunc i64 %46 to i32
  %48 = getelementptr inbounds nuw %"struct.Luau::CodeGen::X64::RegisterX64", ptr %19, i32 0, i32 0
  %49 = load i8, ptr %48, align 1
  %50 = call i64 @_ZN4Luau7CodeGen3X64plENS1_11RegisterX64Ei(i8 %49, i32 noundef %47)
  store i64 %50, ptr %18, align 4
  %51 = call i64 @_ZNK4Luau7CodeGen3X6410OperandX64ixEOS2_(ptr noundef nonnull align 4 dereferenceable(8) @_ZN4Luau7CodeGen3X64L4addrE, ptr noundef nonnull align 4 dereferenceable(8) %18)
  store i64 %51, ptr %17, align 4
  call void @_ZN4Luau7CodeGen4IrOpC2Ev(ptr noundef nonnull align 4 dereferenceable(4) %20)
  %52 = load i64, ptr %17, align 4
  %53 = getelementptr inbounds nuw %"struct.Luau::CodeGen::IrOp", ptr %20, i32 0, i32 0
  %54 = load i32, ptr %53, align 4
  call void @_ZN4Luau7CodeGen3X6416IrCallWrapperX6411addArgumentENS1_7SizeX64ENS1_10OperandX64ENS0_4IrOpE(ptr noundef nonnull align 8 dereferenceable(240) %9, i8 noundef zeroext 4, i64 %52, i32 %54)
  call void @llvm.lifetime.end.p0(i64 8, ptr %18) #8
  call void @llvm.memcpy.p0.p0.i64(ptr align 1 %22, ptr align 1 @_ZN4Luau7CodeGen3X64L5rBaseE, i64 1, i1 false), !tbaa.struct !23
  %55 = getelementptr inbounds nuw %"struct.Luau::CodeGen::X64::RegisterX64", ptr %22, i32 0, i32 0
  %56 = load i8, ptr %55, align 1
  call void @_ZN4Luau7CodeGen3X6410OperandX64C2ENS1_11RegisterX64E(ptr noundef nonnull align 4 dereferenceable(8) %21, i8 %56)
  call void @_ZN4Luau7CodeGen4IrOpC2Ev(ptr noundef nonnull align 4 dereferenceable(4) %23)
  %57 = load i64, ptr %21, align 4
  %58 = getelementptr inbounds nuw %"struct.Luau::CodeGen::IrOp", ptr %23, i32 0, i32 0
  %59 = load i32, ptr %58, align 4
  call void @_ZN4Luau7CodeGen3X6416IrCallWrapperX6411addArgumentENS1_7SizeX64ENS1_10OperandX64ENS0_4IrOpE(ptr noundef nonnull align 8 dereferenceable(240) %9, i8 noundef zeroext 4, i64 %57, i32 %59)
  call void @llvm.memcpy.p0.p0.i64(ptr align 1 %25, ptr align 1 @_ZN4Luau7CodeGen3X64L10rConstantsE, i64 1, i1 false), !tbaa.struct !23
  %60 = getelementptr inbounds nuw %"struct.Luau::CodeGen::X64::RegisterX64", ptr %25, i32 0, i32 0
  %61 = load i8, ptr %60, align 1
  call void @_ZN4Luau7CodeGen3X6410OperandX64C2ENS1_11RegisterX64E(ptr noundef nonnull align 4 dereferenceable(8) %24, i8 %61)
  call void @_ZN4Luau7CodeGen4IrOpC2Ev(ptr noundef nonnull align 4 dereferenceable(4) %26)
  %62 = load i64, ptr %24, align 4
  %63 = getelementptr inbounds nuw %"struct.Luau::CodeGen::IrOp", ptr %26, i32 0, i32 0
  %64 = load i32, ptr %63, align 4
  call void @_ZN4Luau7CodeGen3X6416IrCallWrapperX6411addArgumentENS1_7SizeX64ENS1_10OperandX64ENS0_4IrOpE(ptr noundef nonnull align 8 dereferenceable(240) %9, i8 noundef zeroext 4, i64 %62, i32 %64)
  call void @llvm.lifetime.start.p0(i64 8, ptr %27) #8
  call void @llvm.lifetime.start.p0(i64 8, ptr %28) #8
  call void @llvm.memcpy.p0.p0.i64(ptr align 1 %29, ptr align 1 @_ZN4Luau7CodeGen3X64L14rNativeContextE, i64 1, i1 false), !tbaa.struct !23
  %65 = load i32, ptr %7, align 4, !tbaa !22
  %66 = getelementptr inbounds nuw %"struct.Luau::CodeGen::X64::RegisterX64", ptr %29, i32 0, i32 0
  %67 = load i8, ptr %66, align 1
  %68 = call i64 @_ZN4Luau7CodeGen3X64plENS1_11RegisterX64Ei(i8 %67, i32 noundef %65)
  store i64 %68, ptr %28, align 4
  %69 = call i64 @_ZNK4Luau7CodeGen3X6410OperandX64ixEOS2_(ptr noundef nonnull align 4 dereferenceable(8) @_ZN4Luau7CodeGen3X64L5qwordE, ptr noundef nonnull align 4 dereferenceable(8) %28)
  store i64 %69, ptr %27, align 4
  call void @_ZN4Luau7CodeGen3X6416IrCallWrapperX644callERKNS1_10OperandX64E(ptr noundef nonnull align 8 dereferenceable(240) %9, ptr noundef nonnull align 4 dereferenceable(8) %27)
  call void @llvm.lifetime.end.p0(i64 8, ptr %28) #8
  call void @llvm.lifetime.end.p0(i64 8, ptr %27) #8
  %70 = load ptr, ptr %6, align 8, !tbaa !4
  call void @_ZN4Luau7CodeGen3X6414emitUpdateBaseERNS1_18AssemblyBuilderX64E(ptr noundef nonnull align 8 dereferenceable(252) %70)
  call void @llvm.lifetime.end.p0(i64 1, ptr %13) #8
  call void @llvm.lifetime.end.p0(i64 240, ptr %9) #8
  ret void
}